; Function Attrs: mustprogress uwtable
define hidden void @_ZN5smtfd14plugin_context11model_valueEP4sort(ptr dead_on_unwind noalias writable sret(%class.obj_ref) align 8 initializes((0, 16)) %0, ptr noundef nonnull readonly align 8 captures(none) dereferenceable(72) %1, ptr noundef %2) local_unnamed_addr #3 align 2 personality ptr @__gxx_personality_v0 {
  %4 = alloca %class.obj_ref, align 8
  %5 = load ptr, ptr %1, align 8, !tbaa !41
  store ptr null, ptr %0, align 8, !tbaa !51
  %6 = getelementptr inbounds nuw i8, ptr %0, i64 8
  store ptr %5, ptr %6, align 8, !tbaa !53
  %7 = getelementptr inbounds nuw i8, ptr %1, i64 56
  %8 = load ptr, ptr %7, align 8, !tbaa !3
  %9 = icmp eq ptr %8, null
  br i1 %9, label %_ZN7obj_refI4expr11ast_managerED2Ev.exit._crit_edge, label %_ZN6vectorIPN5smtfd13theory_pluginELb0EjE3endEv.exit

_ZN6vectorIPN5smtfd13theory_pluginELb0EjE3endEv.exit: ; preds = %3
  %10 = getelementptr inbounds i8, ptr %8, i64 -4
  %11 = load i32, ptr %10, align 4, !tbaa !10
  %12 = zext i32 %11 to i64
  %13 = getelementptr inbounds nuw ptr, ptr %8, i64 %12
  %.not17 = icmp eq i32 %11, 0
  br i1 %.not17, label %_ZN7obj_refI4expr11ast_managerED2Ev.exit._crit_edge, label %.lr.ph

.lr.ph:                                           ; preds = %_ZN6vectorIPN5smtfd13theory_pluginELb0EjE3endEv.exit, %_ZN7obj_refI4expr11ast_managerED2Ev.exit
  %.01218 = phi ptr [ %19, %_ZN7obj_refI4expr11ast_managerED2Ev.exit ], [ %8, %_ZN6vectorIPN5smtfd13theory_pluginELb0EjE3endEv.exit ]
  %14 = load ptr, ptr %.01218, align 8, !tbaa !12
  call void @llvm.lifetime.start.p0(i64 16, ptr nonnull %4) #22
  %15 = load ptr, ptr %14, align 8, !tbaa !14
  %16 = getelementptr inbounds nuw i8, ptr %15, i64 40
  %17 = load ptr, ptr %16, align 8
  invoke void %17(ptr dead_on_unwind nonnull writable sret(%class.obj_ref) align 8 %4, ptr noundef nonnull align 8 dereferenceable(144) %14, ptr noundef %2)
          to label %_ZN7obj_refI4expr11ast_managerED2Ev.exit unwind label %20

_ZN7obj_refI4expr11ast_managerED2Ev.exit:         ; preds = %.lr.ph
  %18 = load ptr, ptr %4, align 8, !tbaa !34
  store ptr %18, ptr %0, align 8, !tbaa !34
  call void @llvm.lifetime.end.p0(i64 16, ptr nonnull %4) #22
  %.not16 = icmp ne ptr %18, null
  %19 = getelementptr inbounds nuw i8, ptr %.01218, i64 8
  %.not = icmp eq ptr %19, %13
  %or.cond = select i1 %.not16, i1 true, i1 %.not
  br i1 %or.cond, label %_ZN7obj_refI4expr11ast_managerED2Ev.exit._crit_edge, label %.lr.ph

20:                                               ; preds = %.lr.ph
  %21 = landingpad { ptr, i32 }
          cleanup
  call void @llvm.lifetime.end.p0(i64 16, ptr nonnull %4) #22
  call void @_ZN7obj_refI4expr11ast_managerED2Ev(ptr noundef nonnull align 8 dereferenceable(16) %0) #22
  resume { ptr, i32 } %21

_ZN7obj_refI4expr11ast_managerED2Ev.exit._crit_edge: ; preds = %_ZN7obj_refI4expr11ast_managerED2Ev.exit, %3, %_ZN6vectorIPN5smtfd13theory_pluginELb0EjE3endEv.exit
  ret void
}